; Function Attrs: nounwind uwtable
define internal fastcc void @write_bin_miss_response(ptr noundef %0, ptr noundef readonly captures(none) %1, i64 noundef range(i64 0, 65536) %2) unnamed_addr #0 {
  %.not = icmp eq i64 %2, 0
  br i1 %.not, label %11, label %4

4:                                                ; preds = %3
  %5 = trunc nuw i64 %2 to i16
  %6 = trunc nuw nsw i64 %2 to i32
  tail call fastcc void @add_bin_header(ptr noundef %0, i16 noundef zeroext 1, i8 noundef zeroext 0, i16 noundef zeroext %5, i32 noundef %6)
  %7 = getelementptr inbounds nuw i8, ptr %0, i64 208
  %8 = load ptr, ptr %7, align 8, !tbaa !60
  %9 = getelementptr inbounds nuw i8, ptr %8, i64 184
  tail call void @llvm.memcpy.p0.p0.i64(ptr nonnull align 1 %9, ptr align 1 %1, i64 %2, i1 false)
  %10 = load ptr, ptr %7, align 8, !tbaa !60
  tail call void @resp_add_iov(ptr noundef %10, ptr noundef nonnull %9, i32 noundef %6) #11
  br label %21

11:                                               ; preds = %3
  %12 = load i32, ptr getelementptr inbounds nuw (i8, ptr @settings, i64 32), align 8, !tbaa !57
  %13 = icmp sgt i32 %12, 1
  br i1 %13, label %14, label %write_bin_error.exit

14:                                               ; preds = %11
  %15 = load ptr, ptr @stderr, align 8, !tbaa !58
  %16 = getelementptr inbounds nuw i8, ptr %0, i64 8
  %17 = load i32, ptr %16, align 8, !tbaa !37
  %18 = tail call i32 (ptr, ptr, ...) @fprintf(ptr noundef %15, ptr noundef nonnull @.str.17, i32 noundef %17, ptr noundef nonnull @.str.8) #12
  br label %write_bin_error.exit

write_bin_error.exit:                             ; preds = %14, %11
  tail call fastcc void @add_bin_header(ptr noundef %0, i16 noundef zeroext 1, i8 noundef zeroext 0, i16 noundef zeroext 0, i32 noundef 9)
  %19 = getelementptr inbounds nuw i8, ptr %0, i64 208
  %20 = load ptr, ptr %19, align 8, !tbaa !60
  tail call void @resp_add_iov(ptr noundef %20, ptr noundef nonnull @.str.8, i32 noundef 9) #11
  br label %21

21:                                               ; preds = %write_bin_error.exit, %4
  %.sink = phi i32 [ 9, %write_bin_error.exit ], [ 1, %4 ]
  tail call void @conn_set_state(ptr noundef %0, i32 noundef %.sink) #11
  ret void
}